(lp0
(dp1
S'accentColor'
p2
V030219
p3
sS'from'
p4
S'Facebook'
p5
sS'Name'
p6
S'Addicted2Success'
p7
sS'timestamp'
p8
S'05:33:00 31-01-2018'
p9
sS'imageURL'
p10
Vhttps://external.xx.fbcdn.net/safe_image.php?d=AQCmgiBmFFgiYl8b&url=https%3A%2F%2Fnaqyr37xcg93tizq734pqsx1-wpengine.netdna-ssl.com%2Fwp-content%2Fuploads%2F2016%2F01%2FJack-Ma.jpg&_nc_hash=AQAlWQSoHql50aTw
p11
sS'contentTags'
p12
V matter chase rescue
p13
sS'content'
p14
V\u201cNo matter how tough the chase is, you should always have the dream you saw on the first day. It\u2019ll keep you motivated and rescue you (from any weak thoughts).\u201d \u2013 Jack Ma
p15
sS'caption'
p16
VJack Ma wearing a white shirt
p17
sS'adult'
p18
I00
sS'textInImage'
p19
S''
p20
sS'profilePic'
p21
Vhttps://scontent.xx.fbcdn.net/v/t1.0-1/p50x50/10154217_658920217476573_5670661844454727638_n.jpg?oh=2832926f2cc585315e4c60d4aba56fa5&oe=5B26F4DE
p22
sa(dp23
g2
V284A69
p24
sg4
g5
sg6
S'Sachin Tendulkar'
p25
sg8
S'16:08:53 28-01-2018'
p26
sg10
Vhttps://scontent.xx.fbcdn.net/v/t15.0-10/27408332_1791547614202763_6462080434896371712_n.jpg?oh=af56fe1cfe16e04f3412e299458ac31f&oe=5AE3BBB5
p27
sg12
V Grace power Roger Federer
p28
sg14
VGrace, power and agility. No one in the world could play that shot. Roger Federer #AusOpen
p29
sg16
Va man in a match on a blue tennis court
p30
sg18
I00
sg19
g20
sg21
Vhttps://scontent.xx.fbcdn.net/v/t1.0-1/p50x50/19030689_1553039058053621_5235101527349098586_n.jpg?oh=2dc49df6e87b5160f0a0e37e5381355d&oe=5ADFBF63
p31
sa(dp32
g2
V839A31
p33
sg4
g5
sg6
S'SoTeeni'
p34
sg8
S'01:08:38 13-07-2012'
p35
sg10
Vhttps://scontent.xx.fbcdn.net/v/t1.0-9/541523_466271730063372_1541331230_n.jpg?oh=ebe3ac8260563fbd7888604547cd107d&oe=5ADF3085
p36
sg12
g20
sg14
g20
sg16
Va boy and a girl looking at the camera
p37
sg18
I00
sg19
g20
sg21
Vhttps://scontent.xx.fbcdn.net/v/t1.0-1/c37.37.466.466/s50x50/480019_465852500105295_284173585_n.jpg?oh=e3299bf19d8a8c1644ab5ee2a7401e5d&oe=5ADE421B
p38
sa(dp39
g2
g20
sg4
g5
sg6
S'IEEE'
p40
sg8
S'15:07:43 31-01-2018'
p41
sg10
g20
sg12
V Technology
p42
sg14
VTechnology driven economy is the best.
p43
sg16
g20
sg18
g20
sg19
g20
sg21
Vhttps://scontent.xx.fbcdn.net/v/t1.0-1/p50x50/1070057_532854490102524_1628830417_n.jpg?oh=d1eecfe4b1ade3cd4de1679ffa4bfc2b&oe=5B22BE6E
p44
sa(dp45
g2
VB61515
p46
sg4
g5
sg6
S'AIESEC in Delhi IIT'
p47
sg8
S'15:08:00 27-01-2018'
p48
sg10
Vhttps://scontent.xx.fbcdn.net/v/t1.0-9/p720x720/26993510_10159892077110162_3771395755072981132_n.jpg?oh=52b5419d886d4b13a87d46572c26e979&oe=5B1CA962
p49
sg12
V Headway JanuaryRecruitments2018
p50
sg14
VWe thank Headway Abroad for partnering with us for our #JanuaryRecruitments2018.
p51
sg16
Va close up of text on a black background
p52
sg18
I00
sg19
V Al ESE C IN DELHI is proud tp announce HEADWAY ABROAD asthe official sponsors f JANUARY RECRUITMEN 18 AIESEC
p53
sg21
Vhttps://scontent.xx.fbcdn.net/v/t1.0-1/p50x50/20430163_10159100060500162_6527690601625927633_n.jpg?oh=3b5d20c3b8aca208c39b80ee9c33fb08&oe=5AE53C0B
p54
sa(dp55
g2
V2F609C
p56
sg4
g5
sg6
S'Arijit Singh'
p57
sg8
S'19:29:05 27-01-2018'
p58
sg10
Vhttps://scontent.xx.fbcdn.net/v/t1.0-0/p480x480/27067699_1978172779088605_9158995366013121300_n.jpg?oh=dd52da97f1eba80dce5b8da08f54e6d1&oe=5B1B039A
p59
sg12
V set ArijitSinghLive ArijitinChandigarh
p60
sg14
VChandigarh, India \u000aSome Pictures of the set up for the concert.\u000a\u000aSee You All tomorrow\u000a\u000aBook your ticket now: http://bit.ly/2mrNhHu \u000a\u000a#ArijitSinghLive #ArijitinChandigarh
p61
sg16
Va motorcycle that is sitting on a table
p62
sg18
I00
sg19
g20
sg21
Vhttps://scontent.xx.fbcdn.net/v/t1.0-1/p50x50/27337380_1978757872363429_1603821100599505784_n.jpg?oh=b36ab707432c4a2518a131497d05ff97&oe=5AE757A7
p63
sa(dp64
g2
V4E6067
p65
sg4
g5
sg6
S'Mission Success'
p66
sg8
S'07:00:08 01-02-2018'
p67
sg10
Vhttps://scontent.xx.fbcdn.net/v/t1.0-9/s720x720/27332281_1437578779686266_8439651864571662002_n.jpg?oh=f3920c872bb1d5d08dbed03abde238ac&oe=5B1F8148
p68
sg12
V Hindi Grammar notes
p69
sg14
VHindi Grammar notes
p70
sg16
Va close up of text on a whiteboard
p71
sg18
I00
sg19
V taxa.
p72
sg21
Vhttps://scontent.xx.fbcdn.net/v/t1.0-1/p50x50/21369504_1304780182966127_5366490468770417672_n.jpg?oh=5d7c3136b17ab140b2d4ca5ab3999e0d&oe=5B22653A
p73
sa(dp74
g2
VB1281A
p75
sg4
g5
sg6
S'Japan Food Likers'
p76
sg8
S'10:18:39 24-01-2015'
p77
sg10
Vhttps://scontent.xx.fbcdn.net/v/t1.0-9/10408073_1585114731724221_4799996899567147827_n.jpg?oh=0ca9ae1d2af3bcf451b9b2cd649c57ca&oe=5AE36154
p78
sg12
V traditional Japanese cuisine Tempura
p79
sg14
VTempura is one of the traditional Japanese cuisine.
p80
sg16
Va plate of food on a table
p81
sg18
I00
sg19
g20
sg21
Vhttps://scontent.xx.fbcdn.net/v/t1.0-1/p50x50/10931072_1584980345070993_5694957534379835259_n.jpg?oh=dffdb4a136f672c361ea5f08053e9f46&oe=5B1E211B
p82
sa(dp83
g2
V4A6881
p84
sg4
g5
sg6
S'Maria Sharapova'
p85
sg8
S'07:03:24 13-12-2017'
p86
sg10
Vhttps://scontent.xx.fbcdn.net/v/t31.0-8/q84/s720x720/25352223_10154907029077680_6606623217431633392_o.jpg?oh=d6521668f1956a5b91adb1dd84bc6944&oe=5AE6EAFE
p87
sg12
V Thanks evian new limited edition Kusmi Tea
p88
sg14
VChristmas will be golden this year! Thanks evian and Kusmi Tea for sending your new limited edition #goldenXmas #evian #evianXmas
p89
sg16
Va little girl sitting on a wooden bench
p90
sg18
I00
sg19
g20
sg21
Vhttps://scontent.xx.fbcdn.net/v/t1.0-1/c7.7.50.50/p57x57/532349_10150622062197680_1079544274_n.jpg?oh=79f5834037d75ecf518fb87fb814c3b4&oe=5AE8290D
p91
sa(dp92
g2
V1F0401
p93
sg4
g5
sg6
S'Japan Food Likers'
p94
sg8
S'12:00:27 25-01-2015'
p95
sg10
Vhttps://scontent.xx.fbcdn.net/v/t1.0-9/10409390_1585546238347737_5649556385211388001_n.jpg?oh=39c2e4b54bcc7d3c967d92d225a4f2dc&oe=5B24D292
p96
sg12
V lot of takoyaki shop specialty of Osaka
p97
sg14
VTakoyaki is a specialty of Osaka.\u000aIn Osaka, there are a lot of takoyaki shop.
p98
sg16
Va close up of food on a table
p99
sg18
I00
sg19
g20
sg21
Vhttps://scontent.xx.fbcdn.net/v/t1.0-1/p50x50/10931072_1584980345070993_5694957534379835259_n.jpg?oh=dffdb4a136f672c361ea5f08053e9f46&oe=5B1E211B
p100
sa(dp101
g2
V082982
p102
sg4
g5
sg6
S'YourStory'
p103
sg8
S'17:43:02 01-02-2018'
p104
sg10
Vhttps://external.xx.fbcdn.net/safe_image.php?d=AQCTvTHZrCOdmlYI&url=https%3A%2F%2Fimages.yourstory.com%2F2018%2F02%2Fshutterstock_372847501.jpg&l&_nc_hash=AQAgCxDq1qJCq0R2
p105
sg12
V big wins social sector Budget2018
p106
sg14
VThe social sector bagged big wins from the #Budget2018. Dig in to find out the sectors which will be immensely benefitted by the Union Budget.
p107
sg16
Va group of people sitting at a table
p108
sg18
I00
sg19
g20
sg21
Vhttps://scontent.xx.fbcdn.net/v/t1.0-1/p50x50/12249955_10156223983670162_8938168055703746960_n.png?oh=6607f524e24b64021c3b3f8b75472741&oe=5B1A2DB6
p109
sa(dp110
g2
V687556
p111
sg4
g5
sg6
S'Mashable News'
p112
sg8
S'00:13:28 24-01-2018'
p113
sg10
Vhttps://external.xx.fbcdn.net/safe_image.php?d=AQA89LNX-xNs7x_l&url=https%3A%2F%2Fi.amz.mshcdn.com%2FXPmB7RPDguBxYhFzW_Lzv3LRJH8%3D%2F1200x630%2F2017%252F12%252F21%252Fd5%252F192d5a9a17c54811b9b2be9ac1fd3aa7.fe3ac.png&_nc_hash=AQB7vXhmWLFp8sD5
p114
sg12
V opening date Museum of Selfies prank
p115
sg14
VThe Museum of Selfies gets an opening date \u2014 and it's not a prank.
p116
sg16
g20
sg18
I00
sg19
g20
sg21
Vhttps://scontent.xx.fbcdn.net/v/t1.0-1/p50x50/12066032_1243925582300854_5937055222708893696_n.jpg?oh=911cfc52845930eb9904572e11144c06&oe=5AE02FEF
p117
sa(dp118
g2
V367D95
p119
sg4
g5
sg6
S'Indian Cricket Team'
p120
sg8
S'22:26:16 27-01-2018'
p121
sg10
Vhttps://scontent.xx.fbcdn.net/v/t31.0-8/s720x720/27164398_1744075895614096_1965475095567974078_o.jpg?oh=5b4e1865441c3baf4246d5841cc8b8cd&oe=5AE8DFE1
p122
sg12
V brilliant victory Picture perfect dressing room Wanderers
p123
sg14
VPicture perfect dressing room after a brilliant victory at The Wanderers #TeamIndia #SAvIND
p124
sg16
VIshant Sharma et al. posing for the camera
p125
sg18
I00
sg19
g20
sg21
Vhttps://scontent.xx.fbcdn.net/v/t1.0-1/p50x50/18893328_1500575906630764_6618619760065960894_n.jpg?oh=f514388fd52b4fd7280004657950f598&oe=5B1E60DA
p126
sa(dp127
g2
V656962
p128
sg4
g5
sg6
S'Paul Walker'
p129
sg8
S'22:56:23 21-10-2017'
p130
sg10
Vhttps://scontent.xx.fbcdn.net/v/t1.0-9/22728786_1788107321223524_7585713266684824503_n.jpg?oh=803789606ee004d5d538956810845cdc&oe=5ADCCF63
p131
sg12
V people good soul vibes
p132
sg14
V\u201cBe such a good soul, that people crave your vibes.\u201d - Unknown #TeamPW
p133
sg16
VPaul Walker looking at the camera
p134
sg18
I00
sg19
g20
sg21
Vhttps://scontent.xx.fbcdn.net/v/t1.0-1/c0.0.50.50/p50x50/1499498_716188585082075_1719422855_n.jpg?oh=600d1d8772cdc5e77253bc5d05b2702b&oe=5AE87E39
p135
sa(dp136
g2
VC89203
p137
sg4
g5
sg6
S'Cross MUN'
p138
sg8
S'00:17:45 29-09-2017'
p139
sg10
Vhttps://scontent.xx.fbcdn.net/v/t31.0-8/s720x720/22051297_132748330698323_6562204991884262376_o.jpg?oh=d826007723f78b73fa351f76b6dc7e14&oe=5B21C7B1
p140
sg12
V Committee- Disarmament international security matters international security regime
p141
sg14
VLadies and Gentlemen, Friends, MUNners and all of you out there- we are proud to announce the first committee to be simulated at IITM MUN 2018!\u000aThe wait has ended- Welcome to the UNGA First Committee- Disarmament and International Security.\u000aThe First Committee deals with disarmament, global challenges and threats to peace that affect the international community and seeks out solutions to the challenges in the international security regime. It considers all disarmament and international security matters within the scope of the Charter or relating to the powers and functions of any other organ of the United Nations; the general principles of cooperation in the maintenance of international peace and security, as well as principles governing disarmament and the regulation of armaments; promotion of cooperative arrangements and measures aimed at strengthening stability through lower levels of armaments.\u000ahttps://m.facebook.com/groups/1606622079639597?multi_permalinks=1755323861436084&notif_t=group_activity&notif_id=1506614018011710&ref=m_notif
p142
sg16
Va close up of a sign
p143
sg18
I00
sg19
V IITM MUN 2018 DISARMAMENT AND V INTERNATIONAL SECURITY COUNCIL
p144
sg21
Vhttps://scontent.xx.fbcdn.net/v/t1.0-1/p50x50/14445938_1061027940681207_673986034709480023_n.jpg?oh=cbea9d7bb522c494147c7a4d8cc63039&oe=5ADE9796
p145
sa(dp146
g2
g20
sg4
g5
sg6
S'The Hunt, IIT BHU'
p147
sg8
S'20:35:18 23-01-2015'
p148
sg10
g20
sg12
V minutes of launch problem statement individual questions
p149
sg14
V'THE HUNT' Rules:\u000a\u000a1. Attempt all questions with maximum creativity and entertainment you can show. \u000a2. The weightage of the questions will be shown alongside. \u000a3. Cracking the riddle and bringing the object, both carries marks separately. \u000a4. Teams will be divided into Pools for the ease of management and will be done on lottery basis. \u000a5. Hint will be provided on demand for the individual questions, but will cause deduction in the marks for the same. \u000a6. Hints can be availed at Help Desk after 60 minutes of launch of problem statement. \u000a7. Submission of the problem statement can be done after 90 minutes of the launch of the same.\u000a8. Entertaining the organizers fetches you more gifts.\u000a9. 50 teams will proceed to the next round of the HUNT. \u000aDecision of the organizers in any case will be FINAL and UNDISPUTABLE.
p150
sg16
g20
sg18
g20
sg19
g20
sg21
Vhttps://scontent.xx.fbcdn.net/v/t1.0-1/p50x50/10479702_897424596975983_8293870925717686884_n.jpg?oh=4da566d4065cfae8d35defc9a3c04880&oe=5AD86400
p151
sa(dp152
g2
V966835
p153
sg4
g5
sg6
S'veri-art.com'
p154
sg8
S'21:52:27 19-01-2018'
p155
sg10
Vhttps://scontent.xx.fbcdn.net/v/t15.0-10/p720x720/24574328_1991914567796503_6472866961792434176_n.jpg?oh=2e416aedaf61a7ecd6924981b44372c1&oe=5B19ECCF
p156
sg12
V Amazing portrait work Cuong Nguyen
p157
sg14
VAmazing portrait drawing work by Cuong Nguyen\u000ainstagram.com/icuong\u000a\u000averi-art.net\u000a...
p158
sg16
g20
sg18
I01
sg19
g20
sg21
Vhttps://scontent.xx.fbcdn.net/v/t1.0-1/c1.0.50.50/p50x50/1914411_10156523410490226_5037825200388478922_n.jpg?oh=f722d84b259dcbde8d98dbf8efcca11f&oe=5ADF7C56
p159
sa(dp160
g2
g20
sg4
g5
sg6
S'Daily Motivational Quotes'
p161
sg8
S'20:41:10 29-01-2018'
p162
sg10
g20
sg12
g20
sg14
Vhttps://www.facebook.com/groups/1641634469482814/
p163
sg16
g20
sg18
g20
sg19
g20
sg21
Vhttps://scontent.xx.fbcdn.net/v/t1.0-1/c15.0.50.50/p50x50/12096272_515097348657588_4733494753293656838_n.jpg?oh=d95280a6b48dd5d2d6bbf480b12f9810&oe=5ADE65C8
p164
sa(dp165
g2
V448884
p166
sg4
g5
sg6
S'King Of Random'
p167
sg8
S'06:39:43 04-02-2017'
p168
sg10
Vhttps://scontent.xx.fbcdn.net/v/t31.0-8/q82/s720x720/16403175_1229675590461382_1437466713354821017_o.jpg?oh=ab2cd67b849d7b936123ffad2aff4e04&oe=5AEBBCB4
p169
sg12
g20
sg14
g20
sg16
Va close up of a black background
p170
sg18
I00
sg19
V K RAINDNOMC
p171
sg21
Vhttps://scontent.xx.fbcdn.net/v/t1.0-1/c40.40.497.497/s50x50/150179_331944780234472_484631964_n.jpg?oh=09f8630150bcea668a79e0d5be0d5d06&oe=5AE20204
p172
sa(dp173
g2
V1654B5
p174
sg4
g5
sg6
S'CODER'
p175
sg8
S'10:49:08 15-01-2018'
p176
sg10
Vhttps://external.xx.fbcdn.net/safe_image.php?d=AQDW0dngGZd5PJj_&url=http%3A%2F%2Ftelegra.ph%2Ffile%2F38881736f724a60d02898.jpg&_nc_hash=AQB5LUUoUVAeMxxV
p177
sg12
g20
sg14
Vhttp://telegra.ph/Nabor-stazherov-01-13
p178
sg16
Va screenshot of a cell phone
p179
sg18
I00
sg19
V TPESYETC9 AM3 CTA)KEP QooVe
p180
sg21
Vhttps://scontent.xx.fbcdn.net/v/t1.0-1/p50x50/16939575_700718483440656_6883579774838012572_n.png?oh=c8f22e5754e09c8c70a73f8a79a7131a&oe=5AE94CCF
p181
sa.