(lp0
(dp1
S'Name'
p2
Vrollsroycecars
p3
sS'timestamp'
p4
I1517242380
sS'adult'
p5
S''
p6
sS'textInImage'
p7
g6
sS'profilePic'
p8
Vhttps://scontent-bom1-1.cdninstagram.com/vp/7f8ba573cd7f76a81d11a6afbf327ddb/5B1B7BCB/t51.2885-19/s150x150/13402489_1768530990097654_1377329723_a.jpg
p9
sS'content'
p10
VWhen elements perfectly align, the truly miraculous occurs. #RollsRoycePhantom
p11
sS'from'
p12
S'Instagram'
p13
sS'imageURL'
p14
Vhttps://scontent-bom1-1.cdninstagram.com/vp/8a8223b277ef0823d3d6e210596ab1d7/5B0D37AE/t51.2885-15/s750x750/sh0.08/e35/26864579_949154128568461_2861929231233843200_n.jpg?ig_cache_key=MTcwMzA3NTU0NjAzNDI2NjcxOA%3D%3D.2
p15
sS'contentTags'
p16
g6
sS'accentColor'
p17
g6
sS'caption'
p18
g6
sa(dp19
g2
Vrollsroycecars
p20
sg4
I1517565203
sg5
g6
sg7
g6
sg8
Vhttps://scontent-bom1-1.cdninstagram.com/vp/7f8ba573cd7f76a81d11a6afbf327ddb/5B1B7BCB/t51.2885-19/s150x150/13402489_1768530990097654_1377329723_a.jpg
p21
sg10
VUnique is rarely experienced. It is witnessed in the phenomenon Aurora Borealis, and experienced in #RollsRoycePhantom
p22
sg12
g13
sg14
Vhttps://scontent-bom1-1.cdninstagram.com/vp/616fb0585400e3e647061eb2be1e50e6/5A789C46/t51.2885-15/s640x640/e15/26866190_314105975660379_6295221273274351616_n.jpg?ig_cache_key=MTcwNTc4MzAzNzAwNDMwODkwMQ%3D%3D.2
p23
sg16
g6
sg17
g6
sg18
g6
sa(dp24
g2
Vaudi
p25
sg4
I1517083295
sg5
g6
sg7
g6
sg8
Vhttps://scontent-bom1-1.cdninstagram.com/vp/bc6338873ffdeb55a2bad542e0a2eb23/5B00A60B/t51.2885-19/s150x150/20393559_1850183805309321_5128882303719702528_a.jpg
p26
sg10
VRoad\u2019s closed. Private party. #SpeedGoals
p27
sg12
g13
sg14
Vhttps://scontent-bom1-1.cdninstagram.com/vp/4b17307149c1b9d1f3f0597738e48496/5B09B984/t51.2885-15/s750x750/sh0.08/e35/26867706_376294156169285_8101786390301245440_n.jpg?ig_cache_key=MTcwMTc0NTk2ODIyNjc5MzAzOQ%3D%3D.2
p28
sg16
g6
sg17
g6
sg18
g6
sa(dp29
g2
Vthegateacademy
p30
sg4
I1515151532
sg5
g6
sg7
g6
sg8
Vhttps://scontent-bom1-1.cdninstagram.com/vp/81c82d83c11a35a6b340f79e9badf8f8/5B21C53D/t51.2885-19/s150x150/12106009_566889956801095_1820877460_a.jpg
p31
sg10
VNational Engineering challenge is back with prizes worth Rs. 25 lacs. Click to book your slot >>
p32
sg12
g13
sg14
Vhttps://scontent-bom1-1.cdninstagram.com/vp/03629040eaefa467ca68b5464214c04f/5B201ECA/t51.2885-15/s750x750/sh0.08/e35/26065514_1607695526004469_3413339999100207104_n.jpg?ig_cache_key=MTY4NTUzNTY3ODk0OTIxNTM5Mw%3D%3D.2
p33
sg16
g6
sg17
g6
sg18
g6
sa(dp34
g2
Vtechcrunch
p35
sg4
I1517247785
sg5
g6
sg7
g6
sg8
Vhttps://scontent-bom1-1.cdninstagram.com/vp/a5a91145c1ee83d9964efb0b226e3737/5B124C9B/t51.2885-19/11356437_711073885702655_583055400_a.jpg
p36
sg10
VSo that flamethrower that Elon Musk teased The Boring Company would start selling after it ran out of its 50,000 hats? Yeah, it\u2019s real \u2013 and you can pre-order one now if you want need a ridiculous way to spend $500.\u000a\u000a#ElonMusk #BoringCompany #flamethrower
p37
sg12
g13
sg14
Vhttps://scontent-bom1-1.cdninstagram.com/vp/9c51ad0176215b8e05ac2c225e60bacc/5B23DA13/t51.2885-15/s750x750/sh0.08/e35/26262159_185578792033080_5912069942332620800_n.jpg?ig_cache_key=MTcwMzEyMDQ2MTgxMjE1NjkxNQ%3D%3D.2
p38
sg16
g6
sg17
g6
sg18
g6
sa(dp39
g2
Vferrari
p40
sg4
I1517242203886124
sg5
g6
sg7
g6
sg8
Vhttps://scontent-bom1-1.cdninstagram.com/vp/f2da41aeaa11a5ba1be79cbd21402481/5B0BCD14/t51.2885-19/s150x150/13256976_998954483525291_2088181491_a.jpg
p41
sg10
VReflecting innovation in the morning light. #Ferrari #GTC4Lusso #luxurycars #exclusive
p42
sg12
g13
sg14
Vhttps://scontent-bom1-1.cdninstagram.com/vp/725a6b0a3ea44535085cbd28d9ac4fc9/5B2289DA/t51.2885-15/s750x750/sh0.08/e35/26405232_259800381221981_8133490043583987712_n.jpg?ig_cache_key=MTcwMzA3MzUxNDE3MTM2NzkzMQ%3D%3D.2
p43
sg16
g6
sg17
g6
sg18
g6
sa(dp44
g2
Vvolkswagen
p45
sg4
I1516525417
sg5
g6
sg7
g6
sg8
Vhttps://scontent-bom1-1.cdninstagram.com/vp/abc2b7114c378fa126a7931799da1ac9/5B0FDA4F/t51.2885-19/s150x150/12445981_890470804384794_1881697062_a.jpg
p46
sg10
VCan you guess which car this is? #riddle #interior #volkswagen
p47
sg12
g13
sg14
Vhttps://scontent-bom1-1.cdninstagram.com/vp/487b4628ad519a7ceeb166700ff43fb3/5B0BAA50/t51.2885-15/s750x750/sh0.08/e35/26279259_732630216926622_1117729319972503552_n.jpg?ig_cache_key=MTY5NzA2MTMwMjczNTY4OTM2Nw%3D%3D.2
p48
sg16
g6
sg17
g6
sg18
g6
sa(dp49
g2
Vmaserati
p50
sg4
I1516817487
sg5
g6
sg7
g6
sg8
Vhttps://scontent-bom1-1.cdninstagram.com/vp/08d0fd873cd6ee5b0aca6ed51cc4f680/5B23861C/t51.2885-19/11421969_1487410518237753_1065657877_a.jpg
p51
sg10
VFrom the Alps snowy peaks to the Arabian sand dunes. Free your adventurous spirit. #MaseratiLevante #MaseratiSUV
p52
sg12
g13
sg14
Vhttps://scontent-bom1-1.cdninstagram.com/vp/fe56273b469c7ebb5ac863bcdc59a7e4/5B1BD4D5/t51.2885-15/s750x750/sh0.08/e35/26321328_1795374430493428_7140017894171082752_n.jpg?ig_cache_key=MTY5OTUxMTc3MDAxOTY3MzIwOA%3D%3D.2
p53
sg16
g6
sg17
g6
sg18
g6
sa(dp54
g2
g3
sg4
I1517242380
sg5
g6
sg7
g6
sg8
g9
sg10
g11
sg12
g13
sg14
g15
sg16
g6
sg17
g6
sg18
g6
sa(dp55
g2
g20
sg4
I1517565203
sg5
g6
sg7
g6
sg8
g21
sg10
g22
sg12
g13
sg14
g23
sg16
g6
sg17
g6
sg18
g6
sa(dp56
g2
g25
sg4
I1517083295
sg5
g6
sg7
g6
sg8
g26
sg10
g27
sg12
g13
sg14
g28
sg16
g6
sg17
g6
sg18
g6
sa(dp57
g2
g30
sg4
I1515151532
sg5
g6
sg7
g6
sg8
g31
sg10
g32
sg12
g13
sg14
g33
sg16
g6
sg17
g6
sg18
g6
sa(dp58
g2
g35
sg4
I1517247785
sg5
g6
sg7
g6
sg8
g36
sg10
VSo that flamethrower that Elon Musk teased The Boring Company would start selling after it ran out of its 50,000 hats? Yeah, it\u2019s real \u2013 and you can pre-order one now if you want need a ridiculous way to spend $500.\u000a\u000a#ElonMusk #BoringCompany #flamethrower
p59
sg12
g13
sg14
g38
sg16
g6
sg17
g6
sg18
g6
sa(dp60
g2
g40
sg4
I1517242203886124
sg5
g6
sg7
g6
sg8
g41
sg10
g42
sg12
g13
sg14
g43
sg16
g6
sg17
g6
sg18
g6
sa(dp61
g2
g45
sg4
I1516525417
sg5
g6
sg7
g6
sg8
g46
sg10
g47
sg12
g13
sg14
g48
sg16
g6
sg17
g6
sg18
g6
sa(dp62
g2
g50
sg4
I1516817487
sg5
g6
sg7
g6
sg8
g51
sg10
g52
sg12
g13
sg14
g53
sg16
g6
sg17
g6
sg18
g6
sa(dp63
g2
g3
sg4
I1517242380
sg5
g6
sg7
g6
sg8
g9
sg10
g11
sg12
g13
sg14
g15
sg16
g6
sg17
g6
sg18
g6
sa(dp64
g2
g20
sg4
I1517565203
sg5
g6
sg7
g6
sg8
g21
sg10
g22
sg12
g13
sg14
g23
sg16
g6
sg17
g6
sg18
g6
sa(dp65
g2
g25
sg4
I1517083295
sg5
g6
sg7
g6
sg8
g26
sg10
g27
sg12
g13
sg14
g28
sg16
g6
sg17
g6
sg18
g6
sa(dp66
g2
g30
sg4
I1515151532
sg5
g6
sg7
g6
sg8
g31
sg10
g32
sg12
g13
sg14
g33
sg16
g6
sg17
g6
sg18
g6
sa(dp67
g2
g35
sg4
I1517247785
sg5
g6
sg7
g6
sg8
g36
sg10
VSo that flamethrower that Elon Musk teased The Boring Company would start selling after it ran out of its 50,000 hats? Yeah, it\u2019s real \u2013 and you can pre-order one now if you want need a ridiculous way to spend $500.\u000a\u000a#ElonMusk #BoringCompany #flamethrower
p68
sg12
g13
sg14
g38
sg16
g6
sg17
g6
sg18
g6
sa(dp69
g2
g40
sg4
I1517242203886124
sg5
g6
sg7
g6
sg8
g41
sg10
g42
sg12
g13
sg14
g43
sg16
g6
sg17
g6
sg18
g6
sa(dp70
g2
g45
sg4
I1516525417
sg5
g6
sg7
g6
sg8
g46
sg10
g47
sg12
g13
sg14
g48
sg16
g6
sg17
g6
sg18
g6
sa(dp71
g2
g50
sg4
I1516817487
sg5
g6
sg7
g6
sg8
g51
sg10
g52
sg12
g13
sg14
g53
sg16
g6
sg17
g6
sg18
g6
sa(dp72
g2
g3
sg4
I1517242380
sg5
g6
sg7
g6
sg8
g9
sg10
g11
sg12
g13
sg14
g15
sg16
g6
sg17
g6
sg18
g6
sa(dp73
g2
g20
sg4
I1517565203
sg5
g6
sg7
g6
sg8
g21
sg10
g22
sg12
g13
sg14
g23
sg16
g6
sg17
g6
sg18
g6
sa(dp74
g2
g25
sg4
I1517083295
sg5
g6
sg7
g6
sg8
g26
sg10
g27
sg12
g13
sg14
g28
sg16
g6
sg17
g6
sg18
g6
sa(dp75
g2
g30
sg4
I1515151532
sg5
g6
sg7
g6
sg8
g31
sg10
g32
sg12
g13
sg14
g33
sg16
g6
sg17
g6
sg18
g6
sa(dp76
g2
g35
sg4
I1517247785
sg5
g6
sg7
g6
sg8
g36
sg10
VSo that flamethrower that Elon Musk teased The Boring Company would start selling after it ran out of its 50,000 hats? Yeah, it\u2019s real \u2013 and you can pre-order one now if you want need a ridiculous way to spend $500.\u000a\u000a#ElonMusk #BoringCompany #flamethrower
p77
sg12
g13
sg14
g38
sg16
g6
sg17
g6
sg18
g6
sa(dp78
g2
g40
sg4
I1517242203886124
sg5
g6
sg7
g6
sg8
g41
sg10
g42
sg12
g13
sg14
g43
sg16
g6
sg17
g6
sg18
g6
sa(dp79
g2
g45
sg4
I1516525417
sg5
g6
sg7
g6
sg8
g46
sg10
g47
sg12
g13
sg14
g48
sg16
g6
sg17
g6
sg18
g6
sa(dp80
g2
g50
sg4
I1516817487
sg5
g6
sg7
g6
sg8
g51
sg10
g52
sg12
g13
sg14
g53
sg16
g6
sg17
g6
sg18
g6
sa(dp81
g2
g3
sg4
I1517242380
sg5
g6
sg7
g6
sg8
g9
sg10
g11
sg12
g13
sg14
g15
sg16
g6
sg17
g6
sg18
g6
sa(dp82
g2
g20
sg4
I1517565203
sg5
g6
sg7
g6
sg8
g21
sg10
g22
sg12
g13
sg14
g23
sg16
g6
sg17
g6
sg18
g6
sa(dp83
g2
g25
sg4
I1517083295
sg5
g6
sg7
g6
sg8
g26
sg10
g27
sg12
g13
sg14
g28
sg16
g6
sg17
g6
sg18
g6
sa(dp84
g2
g30
sg4
I1515151532
sg5
g6
sg7
g6
sg8
g31
sg10
g32
sg12
g13
sg14
g33
sg16
g6
sg17
g6
sg18
g6
sa(dp85
g2
g35
sg4
I1517247785
sg5
g6
sg7
g6
sg8
g36
sg10
VSo that flamethrower that Elon Musk teased The Boring Company would start selling after it ran out of its 50,000 hats? Yeah, it\u2019s real \u2013 and you can pre-order one now if you want need a ridiculous way to spend $500.\u000a\u000a#ElonMusk #BoringCompany #flamethrower
p86
sg12
g13
sg14
g38
sg16
g6
sg17
g6
sg18
g6
sa(dp87
g2
g40
sg4
I1517242203886124
sg5
g6
sg7
g6
sg8
g41
sg10
g42
sg12
g13
sg14
g43
sg16
g6
sg17
g6
sg18
g6
sa(dp88
g2
g45
sg4
I1516525417
sg5
g6
sg7
g6
sg8
g46
sg10
g47
sg12
g13
sg14
g48
sg16
g6
sg17
g6
sg18
g6
sa(dp89
g2
g50
sg4
I1516817487
sg5
g6
sg7
g6
sg8
g51
sg10
g52
sg12
g13
sg14
g53
sg16
g6
sg17
g6
sg18
g6
sa(dp90
g2
g3
sg4
I1517242380
sg5
g6
sg7
g6
sg8
g9
sg10
g11
sg12
g13
sg14
g15
sg16
g6
sg17
g6
sg18
g6
sa(dp91
g2
g20
sg4
I1517565203
sg5
g6
sg7
g6
sg8
g21
sg10
g22
sg12
g13
sg14
g23
sg16
g6
sg17
g6
sg18
g6
sa(dp92
g2
g25
sg4
I1517083295
sg5
g6
sg7
g6
sg8
g26
sg10
g27
sg12
g13
sg14
g28
sg16
g6
sg17
g6
sg18
g6
sa(dp93
g2
g30
sg4
I1515151532
sg5
g6
sg7
g6
sg8
g31
sg10
g32
sg12
g13
sg14
g33
sg16
g6
sg17
g6
sg18
g6
sa(dp94
g2
g35
sg4
I1517247785
sg5
g6
sg7
g6
sg8
g36
sg10
VSo that flamethrower that Elon Musk teased The Boring Company would start selling after it ran out of its 50,000 hats? Yeah, it\u2019s real \u2013 and you can pre-order one now if you want need a ridiculous way to spend $500.\u000a\u000a#ElonMusk #BoringCompany #flamethrower
p95
sg12
g13
sg14
g38
sg16
g6
sg17
g6
sg18
g6
sa(dp96
g2
g40
sg4
I1517242203886124
sg5
g6
sg7
g6
sg8
g41
sg10
g42
sg12
g13
sg14
g43
sg16
g6
sg17
g6
sg18
g6
sa(dp97
g2
g45
sg4
I1516525417
sg5
g6
sg7
g6
sg8
g46
sg10
g47
sg12
g13
sg14
g48
sg16
g6
sg17
g6
sg18
g6
sa(dp98
g2
g50
sg4
I1516817487
sg5
g6
sg7
g6
sg8
g51
sg10
g52
sg12
g13
sg14
g53
sg16
g6
sg17
g6
sg18
g6
sa(dp99
g2
g3
sg4
I1517242380
sg5
g6
sg7
g6
sg8
g9
sg10
g11
sg12
g13
sg14
g15
sg16
g6
sg17
g6
sg18
g6
sa(dp100
g2
g20
sg4
I1517565203
sg5
g6
sg7
g6
sg8
g21
sg10
g22
sg12
g13
sg14
g23
sg16
g6
sg17
g6
sg18
g6
sa(dp101
g2
g25
sg4
I1517083295
sg5
g6
sg7
g6
sg8
g26
sg10
g27
sg12
g13
sg14
g28
sg16
g6
sg17
g6
sg18
g6
sa(dp102
g2
g30
sg4
I1515151532
sg5
g6
sg7
g6
sg8
g31
sg10
g32
sg12
g13
sg14
g33
sg16
g6
sg17
g6
sg18
g6
sa(dp103
g2
g35
sg4
I1517247785
sg5
g6
sg7
g6
sg8
g36
sg10
VSo that flamethrower that Elon Musk teased The Boring Company would start selling after it ran out of its 50,000 hats? Yeah, it\u2019s real \u2013 and you can pre-order one now if you want need a ridiculous way to spend $500.\u000a\u000a#ElonMusk #BoringCompany #flamethrower
p104
sg12
g13
sg14
g38
sg16
g6
sg17
g6
sg18
g6
sa(dp105
g2
g40
sg4
I1517242203886124
sg5
g6
sg7
g6
sg8
g41
sg10
g42
sg12
g13
sg14
g43
sg16
g6
sg17
g6
sg18
g6
sa(dp106
g2
g45
sg4
I1516525417
sg5
g6
sg7
g6
sg8
g46
sg10
g47
sg12
g13
sg14
g48
sg16
g6
sg17
g6
sg18
g6
sa(dp107
g2
g50
sg4
I1516817487
sg5
g6
sg7
g6
sg8
g51
sg10
g52
sg12
g13
sg14
g53
sg16
g6
sg17
g6
sg18
g6
sa(dp108
g2
g3
sg4
I1517242380
sg5
g6
sg7
g6
sg8
g9
sg10
g11
sg12
g13
sg14
g15
sg16
g6
sg17
g6
sg18
g6
sa(dp109
g2
g20
sg4
I1517565203
sg5
g6
sg7
g6
sg8
g21
sg10
g22
sg12
g13
sg14
g23
sg16
g6
sg17
g6
sg18
g6
sa(dp110
g2
g25
sg4
I1517083295
sg5
g6
sg7
g6
sg8
g26
sg10
g27
sg12
g13
sg14
g28
sg16
g6
sg17
g6
sg18
g6
sa(dp111
g2
g30
sg4
I1515151532
sg5
g6
sg7
g6
sg8
g31
sg10
g32
sg12
g13
sg14
g33
sg16
g6
sg17
g6
sg18
g6
sa(dp112
g2
g35
sg4
I1517247785
sg5
g6
sg7
g6
sg8
g36
sg10
VSo that flamethrower that Elon Musk teased The Boring Company would start selling after it ran out of its 50,000 hats? Yeah, it\u2019s real \u2013 and you can pre-order one now if you want need a ridiculous way to spend $500.\u000a\u000a#ElonMusk #BoringCompany #flamethrower
p113
sg12
g13
sg14
g38
sg16
g6
sg17
g6
sg18
g6
sa(dp114
g2
g40
sg4
I1517242203886124
sg5
g6
sg7
g6
sg8
g41
sg10
g42
sg12
g13
sg14
g43
sg16
g6
sg17
g6
sg18
g6
sa(dp115
g2
g45
sg4
I1516525417
sg5
g6
sg7
g6
sg8
g46
sg10
g47
sg12
g13
sg14
g48
sg16
g6
sg17
g6
sg18
g6
sa(dp116
g2
g50
sg4
I1516817487
sg5
g6
sg7
g6
sg8
g51
sg10
g52
sg12
g13
sg14
g53
sg16
g6
sg17
g6
sg18
g6
sa(dp117
g2
g3
sg4
I1517242380
sg5
g6
sg7
g6
sg8
g9
sg10
g11
sg12
g13
sg14
g15
sg16
g6
sg17
g6
sg18
g6
sa(dp118
g2
g20
sg4
I1517565203
sg5
g6
sg7
g6
sg8
g21
sg10
g22
sg12
g13
sg14
g23
sg16
g6
sg17
g6
sg18
g6
sa(dp119
g2
g25
sg4
I1517083295
sg5
g6
sg7
g6
sg8
g26
sg10
g27
sg12
g13
sg14
g28
sg16
g6
sg17
g6
sg18
g6
sa(dp120
g2
g30
sg4
I1515151532
sg5
g6
sg7
g6
sg8
g31
sg10
g32
sg12
g13
sg14
g33
sg16
g6
sg17
g6
sg18
g6
sa(dp121
g2
g35
sg4
I1517247785
sg5
g6
sg7
g6
sg8
g36
sg10
VSo that flamethrower that Elon Musk teased The Boring Company would start selling after it ran out of its 50,000 hats? Yeah, it\u2019s real \u2013 and you can pre-order one now if you want need a ridiculous way to spend $500.\u000a\u000a#ElonMusk #BoringCompany #flamethrower
p122
sg12
g13
sg14
g38
sg16
g6
sg17
g6
sg18
g6
sa(dp123
g2
g40
sg4
I1517242203886124
sg5
g6
sg7
g6
sg8
g41
sg10
g42
sg12
g13
sg14
g43
sg16
g6
sg17
g6
sg18
g6
sa(dp124
g2
g45
sg4
I1516525417
sg5
g6
sg7
g6
sg8
g46
sg10
g47
sg12
g13
sg14
g48
sg16
g6
sg17
g6
sg18
g6
sa(dp125
g2
g50
sg4
I1516817487
sg5
g6
sg7
g6
sg8
g51
sg10
g52
sg12
g13
sg14
g53
sg16
g6
sg17
g6
sg18
g6
sa(dp126
g2
g3
sg4
I1517242380
sg5
g6
sg7
g6
sg8
g9
sg10
g11
sg12
g13
sg14
g15
sg16
g6
sg17
g6
sg18
g6
sa(dp127
g2
g20
sg4
I1517565203
sg5
g6
sg7
g6
sg8
g21
sg10
g22
sg12
g13
sg14
g23
sg16
g6
sg17
g6
sg18
g6
sa(dp128
g2
g25
sg4
I1517083295
sg5
g6
sg7
g6
sg8
g26
sg10
g27
sg12
g13
sg14
g28
sg16
g6
sg17
g6
sg18
g6
sa(dp129
g2
g30
sg4
I1515151532
sg5
g6
sg7
g6
sg8
g31
sg10
g32
sg12
g13
sg14
g33
sg16
g6
sg17
g6
sg18
g6
sa(dp130
g2
g35
sg4
I1517247785
sg5
g6
sg7
g6
sg8
g36
sg10
VSo that flamethrower that Elon Musk teased The Boring Company would start selling after it ran out of its 50,000 hats? Yeah, it\u2019s real \u2013 and you can pre-order one now if you want need a ridiculous way to spend $500.\u000a\u000a#ElonMusk #BoringCompany #flamethrower
p131
sg12
g13
sg14
g38
sg16
g6
sg17
g6
sg18
g6
sa(dp132
g2
g40
sg4
I1517242203886124
sg5
g6
sg7
g6
sg8
g41
sg10
g42
sg12
g13
sg14
g43
sg16
g6
sg17
g6
sg18
g6
sa(dp133
g2
g45
sg4
I1516525417
sg5
g6
sg7
g6
sg8
g46
sg10
g47
sg12
g13
sg14
g48
sg16
g6
sg17
g6
sg18
g6
sa(dp134
g2
g50
sg4
I1516817487
sg5
g6
sg7
g6
sg8
g51
sg10
g52
sg12
g13
sg14
g53
sg16
g6
sg17
g6
sg18
g6
sa(dp135
g2
g3
sg4
I1517242380
sg5
g6
sg7
g6
sg8
g9
sg10
g11
sg12
g13
sg14
g15
sg16
g6
sg17
g6
sg18
g6
sa(dp136
g2
g20
sg4
I1517565203
sg5
g6
sg7
g6
sg8
g21
sg10
g22
sg12
g13
sg14
g23
sg16
g6
sg17
g6
sg18
g6
sa(dp137
g2
g25
sg4
I1517083295
sg5
g6
sg7
g6
sg8
g26
sg10
g27
sg12
g13
sg14
g28
sg16
g6
sg17
g6
sg18
g6
sa(dp138
g2
g30
sg4
I1515151532
sg5
g6
sg7
g6
sg8
g31
sg10
g32
sg12
g13
sg14
g33
sg16
g6
sg17
g6
sg18
g6
sa(dp139
g2
g35
sg4
I1517247785
sg5
g6
sg7
g6
sg8
g36
sg10
VSo that flamethrower that Elon Musk teased The Boring Company would start selling after it ran out of its 50,000 hats? Yeah, it\u2019s real \u2013 and you can pre-order one now if you want need a ridiculous way to spend $500.\u000a\u000a#ElonMusk #BoringCompany #flamethrower
p140
sg12
g13
sg14
g38
sg16
g6
sg17
g6
sg18
g6
sa(dp141
g2
g40
sg4
I1517242203886124
sg5
g6
sg7
g6
sg8
g41
sg10
g42
sg12
g13
sg14
g43
sg16
g6
sg17
g6
sg18
g6
sa(dp142
g2
g45
sg4
I1516525417
sg5
g6
sg7
g6
sg8
g46
sg10
g47
sg12
g13
sg14
g48
sg16
g6
sg17
g6
sg18
g6
sa(dp143
g2
g50
sg4
I1516817487
sg5
g6
sg7
g6
sg8
g51
sg10
g52
sg12
g13
sg14
g53
sg16
g6
sg17
g6
sg18
g6
sa(dp144
g2
g3
sg4
I1517242380
sg5
g6
sg7
g6
sg8
g9
sg10
g11
sg12
g13
sg14
g15
sg16
g6
sg17
g6
sg18
g6
sa(dp145
g2
g20
sg4
I1517565203
sg5
g6
sg7
g6
sg8
g21
sg10
g22
sg12
g13
sg14
g23
sg16
g6
sg17
g6
sg18
g6
sa(dp146
g2
g25
sg4
I1517083295
sg5
g6
sg7
g6
sg8
g26
sg10
g27
sg12
g13
sg14
g28
sg16
g6
sg17
g6
sg18
g6
sa(dp147
g2
g30
sg4
I1515151532
sg5
g6
sg7
g6
sg8
g31
sg10
g32
sg12
g13
sg14
g33
sg16
g6
sg17
g6
sg18
g6
sa(dp148
g2
g35
sg4
I1517247785
sg5
g6
sg7
g6
sg8
g36
sg10
VSo that flamethrower that Elon Musk teased The Boring Company would start selling after it ran out of its 50,000 hats? Yeah, it\u2019s real \u2013 and you can pre-order one now if you want need a ridiculous way to spend $500.\u000a\u000a#ElonMusk #BoringCompany #flamethrower
p149
sg12
g13
sg14
g38
sg16
g6
sg17
g6
sg18
g6
sa(dp150
g2
g40
sg4
I1517242203886124
sg5
g6
sg7
g6
sg8
g41
sg10
g42
sg12
g13
sg14
g43
sg16
g6
sg17
g6
sg18
g6
sa(dp151
g2
g45
sg4
I1516525417
sg5
g6
sg7
g6
sg8
g46
sg10
g47
sg12
g13
sg14
g48
sg16
g6
sg17
g6
sg18
g6
sa(dp152
g2
g50
sg4
I1516817487
sg5
g6
sg7
g6
sg8
g51
sg10
g52
sg12
g13
sg14
g53
sg16
g6
sg17
g6
sg18
g6
sa(dp153
g2
g3
sg4
I1517242380
sg5
g6
sg7
g6
sg8
g9
sg10
g11
sg12
g13
sg14
g15
sg16
g6
sg17
g6
sg18
g6
sa(dp154
g2
g20
sg4
I1517565203
sg5
g6
sg7
g6
sg8
g21
sg10
g22
sg12
g13
sg14
g23
sg16
g6
sg17
g6
sg18
g6
sa(dp155
g2
g25
sg4
I1517083295
sg5
g6
sg7
g6
sg8
g26
sg10
g27
sg12
g13
sg14
g28
sg16
g6
sg17
g6
sg18
g6
sa(dp156
g2
g30
sg4
I1515151532
sg5
g6
sg7
g6
sg8
g31
sg10
g32
sg12
g13
sg14
g33
sg16
g6
sg17
g6
sg18
g6
sa(dp157
g2
g35
sg4
I1517247785
sg5
g6
sg7
g6
sg8
g36
sg10
VSo that flamethrower that Elon Musk teased The Boring Company would start selling after it ran out of its 50,000 hats? Yeah, it\u2019s real \u2013 and you can pre-order one now if you want need a ridiculous way to spend $500.\u000a\u000a#ElonMusk #BoringCompany #flamethrower
p158
sg12
g13
sg14
g38
sg16
g6
sg17
g6
sg18
g6
sa(dp159
g2
g40
sg4
I1517242203886124
sg5
g6
sg7
g6
sg8
g41
sg10
g42
sg12
g13
sg14
g43
sg16
g6
sg17
g6
sg18
g6
sa(dp160
g2
g45
sg4
I1516525417
sg5
g6
sg7
g6
sg8
g46
sg10
g47
sg12
g13
sg14
g48
sg16
g6
sg17
g6
sg18
g6
sa(dp161
g2
g50
sg4
I1516817487
sg5
g6
sg7
g6
sg8
g51
sg10
g52
sg12
g13
sg14
g53
sg16
g6
sg17
g6
sg18
g6
sa(dp162
g2
g3
sg4
I1517242380
sg5
g6
sg7
g6
sg8
g9
sg10
g11
sg12
g13
sg14
g15
sg16
g6
sg17
g6
sg18
g6
sa(dp163
g2
g20
sg4
I1517565203
sg5
g6
sg7
g6
sg8
g21
sg10
g22
sg12
g13
sg14
g23
sg16
g6
sg17
g6
sg18
g6
sa(dp164
g2
g25
sg4
I1517083295
sg5
g6
sg7
g6
sg8
g26
sg10
g27
sg12
g13
sg14
g28
sg16
g6
sg17
g6
sg18
g6
sa(dp165
g2
g30
sg4
I1515151532
sg5
g6
sg7
g6
sg8
g31
sg10
g32
sg12
g13
sg14
g33
sg16
g6
sg17
g6
sg18
g6
sa(dp166
g2
g35
sg4
I1517247785
sg5
g6
sg7
g6
sg8
g36
sg10
VSo that flamethrower that Elon Musk teased The Boring Company would start selling after it ran out of its 50,000 hats? Yeah, it\u2019s real \u2013 and you can pre-order one now if you want need a ridiculous way to spend $500.\u000a\u000a#ElonMusk #BoringCompany #flamethrower
p167
sg12
g13
sg14
g38
sg16
g6
sg17
g6
sg18
g6
sa(dp168
g2
g40
sg4
I1517242203886124
sg5
g6
sg7
g6
sg8
g41
sg10
g42
sg12
g13
sg14
g43
sg16
g6
sg17
g6
sg18
g6
sa(dp169
g2
g45
sg4
I1516525417
sg5
g6
sg7
g6
sg8
g46
sg10
g47
sg12
g13
sg14
g48
sg16
g6
sg17
g6
sg18
g6
sa(dp170
g2
g50
sg4
I1516817487
sg5
g6
sg7
g6
sg8
g51
sg10
g52
sg12
g13
sg14
g53
sg16
g6
sg17
g6
sg18
g6
sa.