(lp0
S'Jai Singh Page'
p1
aS'YourStory'
p2
aS'Analytics India Magazine'
p3
aS'Power of Positivity'
p4
aS'Headspace'
p5
aS'Brusheezy!'
p6
aS'Digital Buzz'
p7
aS'tripwire magazine'
p8
aS'Skillshare'
p9
aS'Recode'
p10
aS'CoderKick'
p11
aS'CODER'
p12
aS'Hack with GitHub'
p13
aS'Motivational Quotes'
p14
aS'Motivational Quotes Journal'
p15
aS'Motivational Inspirational Positive Quotes'
p16
aS'Daily Motivational Quotes'
p17
aS'Motivational Quotes'
p18
aS'Motivational Quotes'
p19
aS'Success Stories'
p20
aS'Mission Success'
p21
aS'Entrepreneur Success Quotes'
p22
aS'My Success Principles'
p23
aS'Addicted2Success'
p24
aS'The Success Sayings'
p25
aS'Success Life'
p26
aS'Success quotes'
p27
aS'SUCCESS Magazine'
p28
aS'Instemart'
p29
aS'veri-art.com'
p30
aS'Student Alumni Interaction Cell,TU'
p31
aS'Millionaire Mantras'
p32
aS'Mashable News'
p33
aS'Facebook Careers'
p34
aS'IIT BHU Varanasi'
p35
aS'Invento Robotics'
p36
aS'Training and Placement - IIT BHU - Bot'
p37
aS'Training and Placement Cell, IIT BHU Varanasi'
p38
aS'Photography and Fine Arts Club, KNIT Sultanpur'
p39
aS'Tripoto'
p40
aS'NVIDIA GeForce India'
p41
aS'Fremantle India'
p42
aS'Equinox Aviation LLC'
p43
aS'IITR Confessions'
p44
aS'SoTeeni'
p45
aS'Princeton University Physics Competition'
p46
aS'Indian Cricket Team'
p47
aS'Save Her Ever - Save the Girl child'
p48
aS'Maria Sharapova'
p49
aS'King Of Random'
p50
aS'Disney'
p51
aS'Commercial Aircraft Powerplant Engineering - CAPE'
p52
aS'King Of Random'
p53
aS'Koding'
p54
aS'Mechanical engineering'
p55
aS'SoFeminine'
p56
aS'Hannah Montana'
p57
aS'Go USA'
p58
aS'Cricket on Facebook'
p59
aS'MIT Chemical Engineering (ChemE)'
p60
aS'AIESEC in Delhi IIT'
p61
aS'Man vs. Wild'
p62
aS'Harvard John A. Paulson School of Engineering and Applied Sciences'
p63
aS'India'
p64
aS'Shakira'
p65
aS'Japan Food Likers'
p66
aS'Aeromodelling Club, IIT BHU Varanasi'
p67
aS'Flycrafts Aviation'
p68
aS'Rendezvous, IIT Delhi'
p69
aS'Mohit Chauhan'
p70
aS'Business Insider'
p71
aS'Google Cardboard'
p72
aS'The Hunt, IIT BHU'
p73
aS'MASQUERADES-The Dramatics Society of IIT BHU Varanasi'
p74
aS'Pottermore - More Than An Insider'
p75
aS'Launcher 4 android'
p76
aS'Zon TV'
p77
aS'Oregon Museum of Science and Industry (OMSI)'
p78
aS'Wizard or wavely place'
p79
aS'Animation Club IIT - BHU Varanasi'
p80
aS'I Hate Luv Stories'
p81
aS'Microsoft Azure'
p82
aS'cricbuzz'
p83
aS'National Geographic Adventure'
p84
aS'MoMA The Museum of Modern Art'
p85
aS'Petersen Automotive Museum'
p86
aS'Arijit Singh'
p87
aS'MoodSense'
p88
aS'Cross MUN'
p89
aS'Sachin Tendulkar'
p90
aS'Titanic'
p91
aS'Paul Walker'
p92
aS'Mechanical engineers for power plant projects'
p93
aS'Drawing ARCHITECTURE'
p94
aS'Sony Mobile IN'
p95
aS'Harvard University'
p96
aS'Top'
p97
aS'IEEE'
p98
aS'cricket,football'
p99
aS'Miley Cyrus :)'
p100
a.